target datalayout = "e-m:e-p270:32:32-p271:32:32-p272:64:64-i64:64-i128:128-f80:128-n8:16:32:64-S128"
target triple = "x86_64-pc-linux-gnu"

%"class.boost::log::v2_mt_posix::sinks::aux::default_sink" = type <{ %"class.boost::log::v2_mt_posix::sinks::sink.base", [7 x i8], %"class.std::mutex", %"class.boost::log::v2_mt_posix::attribute_name", %"class.boost::log::v2_mt_posix::attribute_name", %"class.boost::log::v2_mt_posix::value_extractor", [4 x i8] }>
%"class.boost::log::v2_mt_posix::sinks::sink.base" = type <{ ptr, i8 }>
%"class.std::mutex" = type { %"class.std::__mutex_base" }
%"class.std::__mutex_base" = type { %union.pthread_mutex_t }
%union.pthread_mutex_t = type { %struct.__pthread_mutex_s }
%struct.__pthread_mutex_s = type { i32, i32, i32, i32, i32, i16, i16, %struct.__pthread_internal_list }
%struct.__pthread_internal_list = type { ptr, ptr }
%"class.boost::log::v2_mt_posix::attribute_name" = type { i32 }
%"class.boost::log::v2_mt_posix::value_extractor" = type { %"struct.boost::log::v2_mt_posix::fallback_to_default" }
%"struct.boost::log::v2_mt_posix::fallback_to_default" = type { i32 }
%"class.boost::log::v2_mt_posix::sinks::sink" = type <{ ptr, i8, [7 x i8] }>

; Function Attrs: mustprogress nounwind uwtable
define linkonce_odr hidden void @_ZN5boost3log11v2_mt_posix19fallback_to_defaultINS1_7trivial14severity_levelEEC2ERKS4_(ptr noundef nonnull align 4 dereferenceable(4) %0, ptr noundef nonnull align 4 dereferenceable(4) %1) unnamed_addr #2 comdat align 2 {
  %3 = alloca ptr, align 8
  %4 = alloca ptr, align 8
  store ptr %0, ptr %3, align 8, !tbaa !3
  store ptr %1, ptr %4, align 8, !tbaa !3
  %5 = load ptr, ptr %3, align 8
  %6 = getelementptr inbounds nuw %"struct.boost::log::v2_mt_posix::fallback_to_default", ptr %5, i32 0, i32 0
  %7 = load ptr, ptr %4, align 8, !tbaa !3
  %8 = load i32, ptr %7, align 4, !tbaa !9
  store i32 %8, ptr %6, align 4, !tbaa !43
  ret void
}

; Function Attrs: mustprogress nounwind uwtable
define linkonce_odr hidden void @_ZNSt12__mutex_baseC2Ev(ptr noundef nonnull align 8 dereferenceable(40) %0) unnamed_addr #2 comdat align 2 {
  %2 = alloca ptr, align 8
  store ptr %0, ptr %2, align 8, !tbaa !3
  %3 = load ptr, ptr %2, align 8
  %4 = getelementptr inbounds nuw %"class.std::__mutex_base", ptr %3, i32 0, i32 0
  call void @llvm.memset.p0.i64(ptr align 8 %4, i8 0, i64 40, i1 false)
  %5 = getelementptr inbounds nuw %struct.__pthread_mutex_s, ptr %4, i32 0, i32 4
  store i32 0, ptr %5, align 8, !tbaa !27
  ret void
}

; Function Attrs: mustprogress nounwind uwtable
define linkonce_odr hidden void @_ZN5boost3log11v2_mt_posix5sinks4sinkD2Ev(ptr noundef nonnull align 8 dereferenceable(9) %0) unnamed_addr #2 comdat align 2 {
  %2 = alloca ptr, align 8
  store ptr %0, ptr %2, align 8, !tbaa !3
  ret void
}

; Function Attrs: mustprogress uwtable
define linkonce_odr hidden void @_ZN5boost3log11v2_mt_posix15value_extractorINS1_7trivial14severity_levelENS1_19fallback_to_defaultIS4_EEvEC2IS4_EERKT_(ptr noundef nonnull align 4 dereferenceable(4) %0, ptr noundef nonnull align 4 dereferenceable(4) %1) unnamed_addr #3 comdat align 2 {
  %3 = alloca ptr, align 8
  %4 = alloca ptr, align 8
  store ptr %0, ptr %3, align 8, !tbaa !3
  store ptr %1, ptr %4, align 8, !tbaa !3
  %5 = load ptr, ptr %3, align 8
  %6 = load ptr, ptr %4, align 8, !tbaa !3
  call void @_ZN5boost3log11v2_mt_posix19fallback_to_defaultINS1_7trivial14severity_levelEEC2ERKS4_(ptr noundef nonnull align 4 dereferenceable(4) %5, ptr noundef nonnull align 4 dereferenceable(4) %6)
  ret void
}

; Function Attrs: mustprogress nounwind uwtable
define linkonce_odr hidden void @_ZNSt5mutexC2Ev(ptr noundef nonnull align 8 dereferenceable(40) %0) unnamed_addr #2 comdat align 2 {
  %2 = alloca ptr, align 8
  store ptr %0, ptr %2, align 8, !tbaa !3
  %3 = load ptr, ptr %2, align 8
  call void @_ZNSt12__mutex_baseC2Ev(ptr noundef nonnull align 8 dereferenceable(40) %3) #17
  ret void
}

; Function Attrs: mustprogress nounwind uwtable
define linkonce_odr hidden void @_ZN5boost3log11v2_mt_posix5sinks4sinkC2Eb(ptr noundef nonnull align 8 dereferenceable(9) %0, i1 noundef zeroext %1) unnamed_addr #2 comdat align 2 {
  %3 = alloca ptr, align 8
  %4 = alloca i8, align 1
  store ptr %0, ptr %3, align 8, !tbaa !3
  %5 = zext i1 %1 to i8
  store i8 %5, ptr %4, align 1, !tbaa !11
  %6 = load ptr, ptr %3, align 8
  store ptr getelementptr inbounds inrange(-16, 48) ({ [8 x ptr] }, ptr @_ZTVN5boost3log11v2_mt_posix5sinks4sinkE, i32 0, i32 0, i32 2), ptr %6, align 8, !tbaa !7
  %7 = getelementptr inbounds nuw %"class.boost::log::v2_mt_posix::sinks::sink", ptr %6, i32 0, i32 1
  %8 = load i8, ptr %4, align 1, !tbaa !11, !range !13, !noundef !14
  %9 = trunc i8 %8 to i1
  %10 = zext i1 %9 to i8
  store i8 %10, ptr %7, align 8, !tbaa !15
  ret void
}

; Function Attrs: mustprogress uwtable
define hidden void @_ZN5boost3log11v2_mt_posix5sinks3aux12default_sinkC2Ev(ptr noundef nonnull align 8 dereferenceable(69) %0) unnamed_addr #3 align 2 personality ptr @__gxx_personality_v0 {
  %2 = alloca ptr, align 8
  %3 = alloca ptr, align 8
  %4 = alloca i32, align 4
  %5 = alloca i32, align 4
  store ptr %0, ptr %2, align 8, !tbaa !3
  %6 = load ptr, ptr %2, align 8
  call void @_ZN5boost3log11v2_mt_posix5sinks4sinkC2Eb(ptr noundef nonnull align 8 dereferenceable(9) %6, i1 noundef zeroext false)
  store ptr getelementptr inbounds inrange(-16, 48) ({ [8 x ptr] }, ptr @_ZTVN5boost3log11v2_mt_posix5sinks3aux12default_sinkE, i32 0, i32 0, i32 2), ptr %6, align 8, !tbaa !7
  %7 = getelementptr inbounds nuw %"class.boost::log::v2_mt_posix::sinks::aux::default_sink", ptr %6, i32 0, i32 2
  call void @_ZNSt5mutexC2Ev(ptr noundef nonnull align 8 dereferenceable(40) %7) #17
  %8 = getelementptr inbounds nuw %"class.boost::log::v2_mt_posix::sinks::aux::default_sink", ptr %6, i32 0, i32 3
  %9 = invoke i32 @_ZN5boost3log11v2_mt_posix3aux23default_attribute_names8severityEv()
          to label %10 unwind label %18

10:                                               ; preds = %1
  %11 = getelementptr inbounds nuw %"class.boost::log::v2_mt_posix::attribute_name", ptr %8, i32 0, i32 0
  store i32 %9, ptr %11, align 8
  %12 = getelementptr inbounds nuw %"class.boost::log::v2_mt_posix::sinks::aux::default_sink", ptr %6, i32 0, i32 4
  %13 = invoke i32 @_ZN5boost3log11v2_mt_posix3aux23default_attribute_names7messageEv()
          to label %14 unwind label %18

14:                                               ; preds = %10
  %15 = getelementptr inbounds nuw %"class.boost::log::v2_mt_posix::attribute_name", ptr %12, i32 0, i32 0
  store i32 %13, ptr %15, align 4
  %16 = getelementptr inbounds nuw %"class.boost::log::v2_mt_posix::sinks::aux::default_sink", ptr %6, i32 0, i32 5
  call void @llvm.lifetime.start.p0(i64 4, ptr %5) #17
  store i32 2, ptr %5, align 4, !tbaa !9
  invoke void @_ZN5boost3log11v2_mt_posix15value_extractorINS1_7trivial14severity_levelENS1_19fallback_to_defaultIS4_EEvEC2IS4_EERKT_(ptr noundef nonnull align 4 dereferenceable(4) %16, ptr noundef nonnull align 4 dereferenceable(4) %5)
          to label %17 unwind label %22

17:                                               ; preds = %14
  call void @llvm.lifetime.end.p0(i64 4, ptr %5) #17
  ret void

18:                                               ; preds = %10, %1
  %19 = landingpad { ptr, i32 }
          cleanup
  %20 = extractvalue { ptr, i32 } %19, 0
  store ptr %20, ptr %3, align 8
  %21 = extractvalue { ptr, i32 } %19, 1
  store i32 %21, ptr %4, align 4
  br label %26

22:                                               ; preds = %14
  %23 = landingpad { ptr, i32 }
          cleanup
  %24 = extractvalue { ptr, i32 } %23, 0
  store ptr %24, ptr %3, align 8
  %25 = extractvalue { ptr, i32 } %23, 1
  store i32 %25, ptr %4, align 4
  call void @llvm.lifetime.end.p0(i64 4, ptr %5) #17
  br label %26

26:                                               ; preds = %22, %18
  call void @_ZN5boost3log11v2_mt_posix5sinks4sinkD2Ev(ptr noundef nonnull align 8 dereferenceable(9) %6) #17
  br label %27

27:                                               ; preds = %26
  %28 = load ptr, ptr %3, align 8
  %29 = load i32, ptr %4, align 4
  %30 = insertvalue { ptr, i32 } poison, ptr %28, 0
  %31 = insertvalue { ptr, i32 } %30, i32 %29, 1
  resume { ptr, i32 } %31
}