; Function Attrs: mustprogress uwtable
define hidden void @_ZN5boost3log11v2_mt_posix5sinks3aux12default_sinkC2Ev(ptr nocapture noundef nonnull writeonly align 8 dereferenceable(69) %0) unnamed_addr #3 align 2 personality ptr @__gxx_personality_v0 {
  %2 = getelementptr inbounds nuw i8, ptr %0, i64 8
  store i8 0, ptr %2, align 8, !tbaa !3
  store ptr getelementptr inbounds inrange(-16, 48) (i8, ptr @_ZTVN5boost3log11v2_mt_posix5sinks3aux12default_sinkE, i64 16), ptr %0, align 8, !tbaa !8
  %3 = getelementptr inbounds nuw i8, ptr %0, i64 16
  tail call void @llvm.memset.p0.i64(ptr noundef nonnull align 8 dereferenceable(40) %3, i8 0, i64 40, i1 false)
  %4 = tail call i32 @_ZN5boost3log11v2_mt_posix3aux23default_attribute_names8severityEv()
  %5 = getelementptr inbounds nuw i8, ptr %0, i64 56
  store i32 %4, ptr %5, align 8
  %6 = tail call i32 @_ZN5boost3log11v2_mt_posix3aux23default_attribute_names7messageEv()
  %7 = getelementptr inbounds nuw i8, ptr %0, i64 60
  store i32 %6, ptr %7, align 4
  %8 = getelementptr inbounds nuw i8, ptr %0, i64 64
  store i32 2, ptr %8, align 8, !tbaa !10
  ret void
}